; Function Attrs: nounwind uwtable
define internal fastcc i32 @accel_file_in_cache(ptr nocapture noundef readonly %0) unnamed_addr #0 {
  %2 = alloca %struct._zend_file_handle, align 8
  %3 = getelementptr inbounds i8, ptr %0, i64 44
  %4 = load i32, ptr %3, align 4
  %5 = icmp eq i32 %4, 1
  br i1 %5, label %6, label %32

6:                                                ; preds = %1
  %7 = getelementptr inbounds i8, ptr %0, i64 88
  %8 = load i8, ptr %7, align 8
  %9 = icmp eq i8 %8, 6
  br i1 %9, label %10, label %32

10:                                               ; preds = %6
  %11 = getelementptr inbounds i8, ptr %0, i64 80
  %12 = load ptr, ptr %11, align 8
  %13 = getelementptr inbounds i8, ptr %12, i64 16
  %14 = load i64, ptr %13, align 8
  %.not = icmp eq i64 %14, 0
  br i1 %.not, label %32, label %15

15:                                               ; preds = %10
  call void @llvm.lifetime.start.p0(i64 80, ptr nonnull %2)
  %16 = tail call ptr @accel_make_persistent_key(ptr noundef nonnull %12) #14
  %.not.i = icmp eq ptr %16, null
  br i1 %.not.i, label %filename_is_in_cache.exit, label %17

17:                                               ; preds = %15
  %18 = load ptr, ptr @accel_shared_globals, align 8
  %19 = getelementptr inbounds i8, ptr %18, i64 48
  %20 = tail call ptr @zend_accel_hash_find(ptr noundef nonnull %19, ptr noundef nonnull %16) #14
  %.not10.i = icmp eq ptr %20, null
  br i1 %.not10.i, label %filename_is_in_cache.exit, label %21

21:                                               ; preds = %17
  %22 = getelementptr inbounds i8, ptr %20, i64 384
  %23 = load i8, ptr %22, align 8
  %24 = and i8 %23, 1
  %.not11.i = icmp eq i8 %24, 0
  br i1 %.not11.i, label %25, label %filename_is_in_cache.exit

25:                                               ; preds = %21
  %26 = load i8, ptr getelementptr inbounds (%struct._zend_accel_globals, ptr @accel_globals, i64 0, i32 5, i32 7), align 2
  %27 = and i8 %26, 1
  %.not12.i = icmp eq i8 %27, 0
  br i1 %.not12.i, label %filename_is_in_cache.exit, label %28

28:                                               ; preds = %25
  call void @zend_stream_init_filename_ex(ptr noundef nonnull %2, ptr noundef nonnull %12) #14
  %29 = call i32 @validate_timestamp_and_record_ex(ptr noundef nonnull %20, ptr noundef nonnull %2) #14
  %30 = icmp eq i32 %29, 0
  %31 = zext i1 %30 to i32
  call void @zend_destroy_file_handle(ptr noundef nonnull %2) #14
  br label %filename_is_in_cache.exit

filename_is_in_cache.exit:                        ; preds = %15, %17, %21, %25, %28
  %.0.i = phi i32 [ %31, %28 ], [ 1, %25 ], [ 0, %17 ], [ 0, %21 ], [ 0, %15 ]
  call void @llvm.lifetime.end.p0(i64 80, ptr nonnull %2)
  br label %32

32:                                               ; preds = %1, %10, %6, %filename_is_in_cache.exit
  %.0 = phi i32 [ %.0.i, %filename_is_in_cache.exit ], [ 0, %6 ], [ 0, %10 ], [ 0, %1 ]
  ret i32 %.0
}